; ModuleID = 'source-C-CXX/46/1985.cpp'
source_filename = "source-C-CXX/46/1985.cpp"
target datalayout = "e-m:e-p270:32:32-p271:32:32-p272:64:64-i64:64-f80:128-n8:16:32:64-S128"
target triple = "x86_64-pc-linux-gnu"

%"class.std::ios_base::Init" = type { i8 }
%"class.std::basic_istream" = type { i32 (...)**, i64, %"class.std::basic_ios" }
%"class.std::basic_ios" = type { %"class.std::ios_base", %"class.std::basic_ostream"*, i8, i8, %"class.std::basic_streambuf"*, %"class.std::ctype"*, %"class.std::num_put"*, %"class.std::num_get"* }
%"class.std::ios_base" = type { i32 (...)**, i64, i64, i32, i32, i32, %"struct.std::ios_base::_Callback_list"*, %"struct.std::ios_base::_Words", [8 x %"struct.std::ios_base::_Words"], i32, %"struct.std::ios_base::_Words"*, %"class.std::locale" }
%"struct.std::ios_base::_Callback_list" = type { %"struct.std::ios_base::_Callback_list"*, void (i32, %"class.std::ios_base"*, i32)*, i32, i32 }
%"struct.std::ios_base::_Words" = type { i8*, i64 }
%"class.std::locale" = type { %"class.std::locale::_Impl"* }
%"class.std::locale::_Impl" = type { i32, %"class.std::locale::facet"**, i64, %"class.std::locale::facet"**, i8** }
%"class.std::locale::facet" = type <{ i32 (...)**, i32, [4 x i8] }>
%"class.std::basic_ostream" = type { i32 (...)**, %"class.std::basic_ios" }
%"class.std::basic_streambuf" = type { i32 (...)**, i8*, i8*, i8*, i8*, i8*, i8*, %"class.std::locale" }
%"class.std::ctype" = type <{ %"class.std::locale::facet.base", [4 x i8], %struct.__locale_struct*, i8, [7 x i8], i32*, i32*, i16*, i8, [256 x i8], [256 x i8], i8, [6 x i8] }>
%"class.std::locale::facet.base" = type <{ i32 (...)**, i32 }>
%struct.__locale_struct = type { [13 x %struct.__locale_data*], i16*, i32*, i32*, [13 x i8*] }
%struct.__locale_data = type opaque
%"class.std::num_put" = type { %"class.std::locale::facet.base", [4 x i8] }
%"class.std::num_get" = type { %"class.std::locale::facet.base", [4 x i8] }

@_ZStL8__ioinit = internal global %"class.std::ios_base::Init" zeroinitializer, align 1
@__dso_handle = external hidden global i8
@_ZSt3cin = external global %"class.std::basic_istream", align 8
@_ZSt4cout = external global %"class.std::basic_ostream", align 8
@llvm.global_ctors = appending global [1 x { i32, void ()*, i8* }] [{ i32, void ()*, i8* } { i32 65535, void ()* @_GLOBAL__sub_I_1985.cpp, i8* null }]

declare void @_ZNSt8ios_base4InitC1Ev(%"class.std::ios_base::Init"* nonnull align 1 dereferenceable(1)) unnamed_addr #0

; Function Attrs: nounwind
declare void @_ZNSt8ios_base4InitD1Ev(%"class.std::ios_base::Init"* nonnull align 1 dereferenceable(1)) unnamed_addr #1

; Function Attrs: nofree nounwind
declare i32 @__cxa_atexit(void (i8*)*, i8*, i8*) local_unnamed_addr #2

; Function Attrs: mustprogress nofree norecurse nosync nounwind sspstrong uwtable willreturn
define dso_local void @_Z4swapPiii(i32* nocapture %0, i32 %1, i32 %2) local_unnamed_addr #3 {
  %4 = sext i32 %1 to i64
  %5 = getelementptr inbounds i32, i32* %0, i64 %4
  %6 = load i32, i32* %5, align 4, !tbaa !5
  %7 = sext i32 %2 to i64
  %8 = getelementptr inbounds i32, i32* %0, i64 %7
  %9 = load i32, i32* %8, align 4, !tbaa !5
  store i32 %9, i32* %5, align 4, !tbaa !5
  store i32 %6, i32* %8, align 4, !tbaa !5
  ret void
}

; Function Attrs: argmemonly mustprogress nofree nosync nounwind willreturn
declare void @llvm.lifetime.start.p0i8(i64 immarg, i8* nocapture) #4

; Function Attrs: argmemonly mustprogress nofree nosync nounwind willreturn
declare void @llvm.lifetime.end.p0i8(i64 immarg, i8* nocapture) #4

; Function Attrs: mustprogress norecurse sspstrong uwtable
define dso_local i32 @main() local_unnamed_addr #5 {
  %1 = alloca i8, align 1
  %2 = alloca i32, align 4
  %3 = alloca [101 x i32], align 16
  %4 = bitcast i32* %2 to i8*
  call void @llvm.lifetime.start.p0i8(i64 4, i8* nonnull %4) #7
  %5 = call nonnull align 8 dereferenceable(16) %"class.std::basic_istream"* @_ZNSirsERi(%"class.std::basic_istream"* nonnull align 8 dereferenceable(16) @_ZSt3cin, i32* nonnull align 4 dereferenceable(4) %2)
  %6 = bitcast [101 x i32]* %3 to i8*
  call void @llvm.lifetime.start.p0i8(i64 404, i8* nonnull %6) #7
  %7 = load i32, i32* %2, align 4, !tbaa !5
  %8 = icmp sgt i32 %7, 0
  br i1 %8, label %18, label %39

9:                                                ; preds = %18
  %10 = icmp sgt i32 %23, 1
  br i1 %10, label %11, label %39

11:                                               ; preds = %9
  %12 = lshr i32 %23, 1
  %13 = zext i32 %12 to i64
  %14 = and i64 %13, 1
  %15 = icmp eq i32 %12, 1
  br i1 %15, label %28, label %16

16:                                               ; preds = %11
  %17 = and i64 %13, 2147483646
  br label %45

18:                                               ; preds = %0, %18
  %19 = phi i64 [ %22, %18 ], [ 0, %0 ]
  %20 = getelementptr inbounds [101 x i32], [101 x i32]* %3, i64 0, i64 %19
  %21 = call nonnull align 8 dereferenceable(16) %"class.std::basic_istream"* @_ZNSirsERi(%"class.std::basic_istream"* nonnull align 8 dereferenceable(16) @_ZSt3cin, i32* nonnull align 4 dereferenceable(4) %20)
  %22 = add nuw nsw i64 %19, 1
  %23 = load i32, i32* %2, align 4, !tbaa !5
  %24 = sext i32 %23 to i64
  %25 = icmp slt i64 %22, %24
  br i1 %25, label %18, label %9, !llvm.loop !9

26:                                               ; preds = %45
  %27 = sub nuw i32 -3, %47
  br label %28

28:                                               ; preds = %26, %11
  %29 = phi i64 [ 0, %11 ], [ %64, %26 ]
  %30 = phi i32 [ -1, %11 ], [ %27, %26 ]
  %31 = icmp eq i64 %14, 0
  br i1 %31, label %39, label %32

32:                                               ; preds = %28
  %33 = add i32 %23, %30
  %34 = getelementptr inbounds [101 x i32], [101 x i32]* %3, i64 0, i64 %29
  %35 = load i32, i32* %34, align 4, !tbaa !5
  %36 = sext i32 %33 to i64
  %37 = getelementptr inbounds [101 x i32], [101 x i32]* %3, i64 0, i64 %36
  %38 = load i32, i32* %37, align 4, !tbaa !5
  store i32 %38, i32* %34, align 4, !tbaa !5
  store i32 %35, i32* %37, align 4, !tbaa !5
  br label %39

39:                                               ; preds = %32, %28, %0, %9
  %40 = getelementptr inbounds [101 x i32], [101 x i32]* %3, i64 0, i64 0
  %41 = load i32, i32* %40, align 16, !tbaa !5
  %42 = call nonnull align 8 dereferenceable(8) %"class.std::basic_ostream"* @_ZNSolsEi(%"class.std::basic_ostream"* nonnull align 8 dereferenceable(8) @_ZSt4cout, i32 %41)
  %43 = load i32, i32* %2, align 4, !tbaa !5
  %44 = icmp sgt i32 %43, 1
  br i1 %44, label %69, label %68

45:                                               ; preds = %45, %16
  %46 = phi i64 [ 0, %16 ], [ %64, %45 ]
  %47 = phi i32 [ 0, %16 ], [ %65, %45 ]
  %48 = phi i64 [ %17, %16 ], [ %66, %45 ]
  %49 = xor i32 %47, -1
  %50 = add i32 %23, %49
  %51 = getelementptr inbounds [101 x i32], [101 x i32]* %3, i64 0, i64 %46
  %52 = load i32, i32* %51, align 8, !tbaa !5
  %53 = sext i32 %50 to i64
  %54 = getelementptr inbounds [101 x i32], [101 x i32]* %3, i64 0, i64 %53
  %55 = load i32, i32* %54, align 4, !tbaa !5
  store i32 %55, i32* %51, align 8, !tbaa !5
  store i32 %52, i32* %54, align 4, !tbaa !5
  %56 = or i64 %46, 1
  %57 = sub nuw nsw i32 -2, %47
  %58 = add i32 %23, %57
  %59 = getelementptr inbounds [101 x i32], [101 x i32]* %3, i64 0, i64 %56
  %60 = load i32, i32* %59, align 4, !tbaa !5
  %61 = sext i32 %58 to i64
  %62 = getelementptr inbounds [101 x i32], [101 x i32]* %3, i64 0, i64 %61
  %63 = load i32, i32* %62, align 4, !tbaa !5
  store i32 %63, i32* %59, align 4, !tbaa !5
  store i32 %60, i32* %62, align 4, !tbaa !5
  %64 = add nuw nsw i64 %46, 2
  %65 = add nuw nsw i32 %47, 2
  %66 = add i64 %48, -2
  %67 = icmp eq i64 %66, 0
  br i1 %67, label %26, label %45, !llvm.loop !11

68:                                               ; preds = %69, %39
  call void @llvm.lifetime.end.p0i8(i64 404, i8* nonnull %6) #7
  call void @llvm.lifetime.end.p0i8(i64 4, i8* nonnull %4) #7
  ret i32 0

69:                                               ; preds = %39, %69
  %70 = phi i64 [ %75, %69 ], [ 1, %39 ]
  call void @llvm.lifetime.start.p0i8(i64 1, i8* nonnull %1)
  store i8 32, i8* %1, align 1, !tbaa !12
  %71 = call nonnull align 8 dereferenceable(8) %"class.std::basic_ostream"* @_ZSt16__ostream_insertIcSt11char_traitsIcEERSt13basic_ostreamIT_T0_ES6_PKS3_l(%"class.std::basic_ostream"* nonnull align 8 dereferenceable(8) @_ZSt4cout, i8* nonnull %1, i64 1)
  call void @llvm.lifetime.end.p0i8(i64 1, i8* nonnull %1)
  %72 = getelementptr inbounds [101 x i32], [101 x i32]* %3, i64 0, i64 %70
  %73 = load i32, i32* %72, align 4, !tbaa !5
  %74 = call nonnull align 8 dereferenceable(8) %"class.std::basic_ostream"* @_ZNSolsEi(%"class.std::basic_ostream"* nonnull align 8 dereferenceable(8) %71, i32 %73)
  %75 = add nuw nsw i64 %70, 1
  %76 = load i32, i32* %2, align 4, !tbaa !5
  %77 = sext i32 %76 to i64
  %78 = icmp slt i64 %75, %77
  br i1 %78, label %69, label %68, !llvm.loop !13
}

declare nonnull align 8 dereferenceable(16) %"class.std::basic_istream"* @_ZNSirsERi(%"class.std::basic_istream"* nonnull align 8 dereferenceable(16), i32* nonnull align 4 dereferenceable(4)) local_unnamed_addr #0

declare nonnull align 8 dereferenceable(8) %"class.std::basic_ostream"* @_ZNSolsEi(%"class.std::basic_ostream"* nonnull align 8 dereferenceable(8), i32) local_unnamed_addr #0

declare nonnull align 8 dereferenceable(8) %"class.std::basic_ostream"* @_ZSt16__ostream_insertIcSt11char_traitsIcEERSt13basic_ostreamIT_T0_ES6_PKS3_l(%"class.std::basic_ostream"* nonnull align 8 dereferenceable(8), i8*, i64) local_unnamed_addr #0

; Function Attrs: sspstrong uwtable
define internal void @_GLOBAL__sub_I_1985.cpp() #6 section ".text.startup" {
  tail call void @_ZNSt8ios_base4InitC1Ev(%"class.std::ios_base::Init"* nonnull align 1 dereferenceable(1) @_ZStL8__ioinit)
  %1 = tail call i32 @__cxa_atexit(void (i8*)* bitcast (void (%"class.std::ios_base::Init"*)* @_ZNSt8ios_base4InitD1Ev to void (i8*)*), i8* getelementptr inbounds (%"class.std::ios_base::Init", %"class.std::ios_base::Init"* @_ZStL8__ioinit, i64 0, i32 0), i8* nonnull @__dso_handle) #7
  ret void
}


!llvm.module.flags = !{!0, !1, !2, !3}
!llvm.ident = !{!4}

!0 = !{i32 1, !"wchar_size", i32 4}
!1 = !{i32 7, !"PIC Level", i32 2}
!2 = !{i32 7, !"PIE Level", i32 2}
!3 = !{i32 7, !"uwtable", i32 1}
!4 = !{!"clang version 13.0.0"}
!5 = !{!6, !6, i64 0}
!6 = !{!"int", !7, i64 0}
!7 = !{!"omnipotent char", !8, i64 0}
!8 = !{!"Simple C++ TBAA"}
!9 = distinct !{!9, !10}
!10 = !{!"llvm.loop.mustprogress"}
!11 = distinct !{!11, !10}
!12 = !{!7, !7, i64 0}
!13 = distinct !{!13, !10}
